CCS PCH C Compiler, Version 4.140, 31805               20-fev-14 08:17

               Filename:   D:\Eletronica\Projetos\Timer\timer.lst

               ROM used:   234 bytes (1%)
                           Largest free fragment is 32530
               RAM used:   25 (2%) at main() level
                           25 (2%) worst case
               Stack:     1 worst case (0 in main + 1 for interrupts)

*
0000:  GOTO   00C0
*
0008:  MOVWF  04
000A:  MOVFF  FD8,05
000E:  MOVFF  FE0,06
0012:  MOVLB  0
0014:  MOVFF  FE9,0C
0018:  MOVFF  FEA,07
001C:  MOVFF  FE1,08
0020:  MOVFF  FE2,09
0024:  MOVFF  FD9,0A
0028:  MOVFF  FDA,0B
002C:  MOVFF  FF3,12
0030:  MOVFF  FF4,13
0034:  MOVFF  FFA,14
0038:  MOVFF  FF5,15
003C:  MOVFF  FF6,16
0040:  MOVFF  FF7,17
0044:  MOVFF  00,0E
0048:  MOVFF  01,0F
004C:  MOVFF  02,10
0050:  MOVFF  03,11
0054:  BTFSS  FF2.5
0056:  GOTO   0060
005A:  BTFSC  FF2.2
005C:  GOTO   00AE
0060:  MOVFF  0E,00
0064:  MOVFF  0F,01
0068:  MOVFF  10,02
006C:  MOVFF  11,03
0070:  MOVFF  0C,FE9
0074:  MOVFF  07,FEA
0078:  BSF    07.7
007A:  MOVFF  08,FE1
007E:  MOVFF  09,FE2
0082:  MOVFF  0A,FD9
0086:  MOVFF  0B,FDA
008A:  MOVFF  12,FF3
008E:  MOVFF  13,FF4
0092:  MOVFF  14,FFA
0096:  MOVFF  15,FF5
009A:  MOVFF  16,FF6
009E:  MOVFF  17,FF7
00A2:  MOVF   04,W
00A4:  MOVFF  06,FE0
00A8:  MOVFF  05,FD8
00AC:  RETFIE 0
.................... /*Uso do timer 0 com fonte externa no 18F542 (pin_a4)*/ 
....................  
.................... #include<18F452.h> 
.................... //////// Standard Header file for the PIC18F452 device //////////////// 
.................... #device PIC18F452 
.................... #list 
....................  
....................  
.................... #FUSES HS 
....................  
.................... #use delay(clock=8MHz) 
.................... #use rs232(xmit=PIN_C6, baud=9600) 
....................  
.................... #INT_TIMER0 
.................... void isr_timer0() { 
.................... 	clear_interrupt(INT_TIMER0); 
00AE:  BCF    FF2.2
.................... 	set_timer0(252); 
00B0:  CLRF   FD7
00B2:  MOVLW  FC
00B4:  MOVWF  FD6
.................... 	output_toggle(PIN_C3); 
00B6:  BCF    F94.3
00B8:  BTG    F8B.3
.................... } 
....................  
00BA:  BCF    FF2.2
00BC:  GOTO   0060
.................... int main(void) { 
00C0:  CLRF   FF8
00C2:  BCF    FD0.7
00C4:  BSF    07.7
00C6:  CLRF   FEA
00C8:  CLRF   FE9
00CA:  BCF    F94.6
00CC:  BSF    F8B.6
00CE:  BSF    FC1.0
00D0:  BSF    FC1.1
00D2:  BSF    FC1.2
00D4:  BCF    FC1.3
....................  
.................... 	setup_timer_0(T0_DIV_1 | T0_EXT_L_TO_H | T0_8_BIT); 
00D6:  MOVLW  E8
00D8:  MOVWF  FD5
.................... 	set_timer0(252); 
00DA:  CLRF   FD7
00DC:  MOVLW  FC
00DE:  MOVWF  FD6
.................... 	clear_interrupt(INT_TIMER0); 
00E0:  BCF    FF2.2
.................... 	enable_interrupts(INT_TIMER0 | GLOBAL); 
00E2:  MOVLW  E0
00E4:  IORWF  FF2,F
....................  
.................... 	while (TRUE) { 
.................... 		; 
.................... 	} 
00E6:  BRA    00E6
....................  
.................... 	return 0; 
00E8:  MOVLW  00
00EA:  MOVWF  01
.................... } 
00EC:  SLEEP 

Configuration Fuses:
   Word  1: 2200   HS NOOSCSEN
   Word  2: 0E0E   PUT BROWNOUT BORV20 NOWDT WDT128
   Word  3: 0100   CCP2C1
   Word  4: 0081   STVREN NOLVP NODEBUG
   Word  5: C00F   NOPROTECT NOCPB NOCPD
   Word  6: E00F   NOWRT NOWRTC NOWRTB NOWRTD
   Word  7: 400F   NOEBTR NOEBTRB
